target datalayout = "e-m:e-p270:32:32-p271:32:32-p272:64:64-i64:64-i128:128-f80:128-n8:16:32:64-S128"
target triple = "x86_64-pc-linux-gnu"

; Function Attrs: mustprogress nounwind uwtable
define i32 @u_strcmp_77(ptr noundef %0, ptr noundef %1) #3 {
  %3 = alloca ptr, align 8
  %4 = alloca ptr, align 8
  %5 = alloca i16, align 2
  %6 = alloca i16, align 2
  store ptr %0, ptr %3, align 8, !tbaa !3
  store ptr %1, ptr %4, align 8, !tbaa !3
  call void @llvm.lifetime.start.p0(i64 2, ptr %5) #7
  call void @llvm.lifetime.start.p0(i64 2, ptr %6) #7
  br label %7

7:                                                ; preds = %24, %2
  %8 = load ptr, ptr %3, align 8, !tbaa !3
  %9 = getelementptr inbounds nuw i16, ptr %8, i32 1
  store ptr %9, ptr %3, align 8, !tbaa !3
  %10 = load i16, ptr %8, align 2, !tbaa !10
  store i16 %10, ptr %5, align 2, !tbaa !10
  %11 = load ptr, ptr %4, align 8, !tbaa !3
  %12 = getelementptr inbounds nuw i16, ptr %11, i32 1
  store ptr %12, ptr %4, align 8, !tbaa !3
  %13 = load i16, ptr %11, align 2, !tbaa !10
  store i16 %13, ptr %6, align 2, !tbaa !10
  %14 = load i16, ptr %5, align 2, !tbaa !10
  %15 = zext i16 %14 to i32
  %16 = load i16, ptr %6, align 2, !tbaa !10
  %17 = zext i16 %16 to i32
  %18 = icmp ne i32 %15, %17
  br i1 %18, label %23, label %19

19:                                               ; preds = %7
  %20 = load i16, ptr %5, align 2, !tbaa !10
  %21 = zext i16 %20 to i32
  %22 = icmp eq i32 %21, 0
  br i1 %22, label %23, label %24

23:                                               ; preds = %19, %7
  br label %25

24:                                               ; preds = %19
  br label %7, !llvm.loop !47

25:                                               ; preds = %23
  %26 = load i16, ptr %5, align 2, !tbaa !10
  %27 = zext i16 %26 to i32
  %28 = load i16, ptr %6, align 2, !tbaa !10
  %29 = zext i16 %28 to i32
  %30 = sub nsw i32 %27, %29
  call void @llvm.lifetime.end.p0(i64 2, ptr %6) #7
  call void @llvm.lifetime.end.p0(i64 2, ptr %5) #7
  ret i32 %30
}