; Function Attrs: mustprogress nofree norecurse nosync nounwind willreturn memory(argmem: read) uwtable
define range(i32 -65535, 65536) i32 @u_strcmp_77(ptr noundef readonly captures(none) %0, ptr noundef readonly captures(none) %1) local_unnamed_addr #2 {
  br label %3

3:                                                ; preds = %3, %2
  %.08 = phi ptr [ %1, %2 ], [ %6, %3 ]
  %.0 = phi ptr [ %0, %2 ], [ %4, %3 ]
  %4 = getelementptr inbounds nuw i8, ptr %.0, i64 2
  %5 = load i16, ptr %.0, align 2, !tbaa !3
  %6 = getelementptr inbounds nuw i8, ptr %.08, i64 2
  %7 = load i16, ptr %.08, align 2, !tbaa !3
  %8 = icmp ne i16 %5, %7
  %9 = icmp eq i16 %5, 0
  %or.cond = or i1 %9, %8
  br i1 %or.cond, label %10, label %3, !llvm.loop !39

10:                                               ; preds = %3
  %11 = zext i16 %5 to i32
  %12 = zext i16 %7 to i32
  %13 = sub nsw i32 %11, %12
  ret i32 %13
}